target datalayout = "e-m:e-p270:32:32-p271:32:32-p272:64:64-i64:64-i128:128-f80:128-n8:16:32:64-S128"
target triple = "x86_64-pc-linux-gnu"

%struct.ForEachState = type { ptr, i32 }
%struct.Node = type { i32 }
%struct.RangeTblRef = type { i32, i32 }
%struct.FromExpr = type { i32, ptr, ptr }
%struct.List = type { i32, i32, i32, ptr, [0 x %union.ListCell] }
%union.ListCell = type { ptr }
%struct.JoinExpr = type { i32, i32, i8, ptr, ptr, ptr, ptr, ptr, ptr, i32 }

@.str = private unnamed_addr constant [27 x i8] c"unrecognized node type: %d\00", align 1
@.str.1 = private unnamed_addr constant [12 x i8] c"initsplan.c\00", align 1
@__func__.add_base_rels_to_query = private unnamed_addr constant [23 x i8] c"add_base_rels_to_query\00", align 1

; Function Attrs: nounwind uwtable
define dso_local void @add_base_rels_to_query(ptr noundef %0, ptr noundef %1) #0 {
  %3 = alloca ptr, align 8
  %4 = alloca ptr, align 8
  %5 = alloca i32, align 4
  %6 = alloca ptr, align 8
  %7 = alloca ptr, align 8
  %8 = alloca %struct.ForEachState, align 8
  %9 = alloca ptr, align 8
  store ptr %0, ptr %3, align 8
  store ptr %1, ptr %4, align 8
  %10 = load ptr, ptr %4, align 8
  %11 = icmp eq ptr %10, null
  br i1 %11, label %12, label %13

12:                                               ; preds = %2
  br label %103

13:                                               ; preds = %2
  %14 = load ptr, ptr %4, align 8
  %15 = getelementptr inbounds nuw %struct.Node, ptr %14, i32 0, i32 0
  %16 = load i32, ptr %15, align 4
  %17 = icmp eq i32 %16, 63
  br i1 %17, label %18, label %25

18:                                               ; preds = %13
  call void @llvm.lifetime.start.p0(i64 4, ptr %5) #6
  %19 = load ptr, ptr %4, align 8
  %20 = getelementptr inbounds nuw %struct.RangeTblRef, ptr %19, i32 0, i32 1
  %21 = load i32, ptr %20, align 4
  store i32 %21, ptr %5, align 4
  %22 = load ptr, ptr %3, align 8
  %23 = load i32, ptr %5, align 4
  %24 = call ptr @build_simple_rel(ptr noundef %22, i32 noundef %23, ptr noundef null)
  call void @llvm.lifetime.end.p0(i64 4, ptr %5) #6
  br label %103

25:                                               ; preds = %13
  %26 = load ptr, ptr %4, align 8
  %27 = getelementptr inbounds nuw %struct.Node, ptr %26, i32 0, i32 0
  %28 = load i32, ptr %27, align 4
  %29 = icmp eq i32 %28, 65
  br i1 %29, label %30, label %73

30:                                               ; preds = %25
  call void @llvm.lifetime.start.p0(i64 8, ptr %6) #6
  %31 = load ptr, ptr %4, align 8
  store ptr %31, ptr %6, align 8
  call void @llvm.lifetime.start.p0(i64 8, ptr %7) #6
  call void @llvm.lifetime.start.p0(i64 16, ptr %8) #6
  %32 = getelementptr inbounds nuw %struct.ForEachState, ptr %8, i32 0, i32 0
  %33 = load ptr, ptr %6, align 8
  %34 = getelementptr inbounds nuw %struct.FromExpr, ptr %33, i32 0, i32 1
  %35 = load ptr, ptr %34, align 8
  store ptr %35, ptr %32, align 8
  %36 = getelementptr inbounds nuw %struct.ForEachState, ptr %8, i32 0, i32 1
  store i32 0, ptr %36, align 8
  %37 = getelementptr i8, ptr %8, i64 12
  call void @llvm.memset.p0.i64(ptr align 4 %37, i8 0, i64 4, i1 false)
  br label %38

38:                                               ; preds = %68, %30
  %39 = getelementptr inbounds nuw %struct.ForEachState, ptr %8, i32 0, i32 0
  %40 = load ptr, ptr %39, align 8
  %41 = icmp ne ptr %40, null
  br i1 %41, label %42, label %59

42:                                               ; preds = %38
  %43 = getelementptr inbounds nuw %struct.ForEachState, ptr %8, i32 0, i32 1
  %44 = load i32, ptr %43, align 8
  %45 = getelementptr inbounds nuw %struct.ForEachState, ptr %8, i32 0, i32 0
  %46 = load ptr, ptr %45, align 8
  %47 = getelementptr inbounds nuw %struct.List, ptr %46, i32 0, i32 1
  %48 = load i32, ptr %47, align 4
  %49 = icmp slt i32 %44, %48
  br i1 %49, label %50, label %59

50:                                               ; preds = %42
  %51 = getelementptr inbounds nuw %struct.ForEachState, ptr %8, i32 0, i32 0
  %52 = load ptr, ptr %51, align 8
  %53 = getelementptr inbounds nuw %struct.List, ptr %52, i32 0, i32 3
  %54 = load ptr, ptr %53, align 8
  %55 = getelementptr inbounds nuw %struct.ForEachState, ptr %8, i32 0, i32 1
  %56 = load i32, ptr %55, align 8
  %57 = sext i32 %56 to i64
  %58 = getelementptr inbounds %union.ListCell, ptr %54, i64 %57
  store ptr %58, ptr %7, align 8
  br label %60

59:                                               ; preds = %42, %38
  store ptr null, ptr %7, align 8
  br label %60

60:                                               ; preds = %59, %50
  %61 = phi i32 [ 1, %50 ], [ 0, %59 ]
  %62 = icmp ne i32 %61, 0
  br i1 %62, label %64, label %63

63:                                               ; preds = %60
  call void @llvm.lifetime.end.p0(i64 16, ptr %8) #6
  br label %72

64:                                               ; preds = %60
  %65 = load ptr, ptr %3, align 8
  %66 = load ptr, ptr %7, align 8
  %67 = load ptr, ptr %66, align 8
  call void @add_base_rels_to_query(ptr noundef %65, ptr noundef %67)
  br label %68

68:                                               ; preds = %64
  %69 = getelementptr inbounds nuw %struct.ForEachState, ptr %8, i32 0, i32 1
  %70 = load i32, ptr %69, align 8
  %71 = add i32 %70, 1
  store i32 %71, ptr %69, align 8
  br label %38, !llvm.loop !4

72:                                               ; preds = %63
  call void @llvm.lifetime.end.p0(i64 8, ptr %7) #6
  call void @llvm.lifetime.end.p0(i64 8, ptr %6) #6
  br label %102

73:                                               ; preds = %25
  %74 = load ptr, ptr %4, align 8
  %75 = getelementptr inbounds nuw %struct.Node, ptr %74, i32 0, i32 0
  %76 = load i32, ptr %75, align 4
  %77 = icmp eq i32 %76, 64
  br i1 %77, label %78, label %88

78:                                               ; preds = %73
  call void @llvm.lifetime.start.p0(i64 8, ptr %9) #6
  %79 = load ptr, ptr %4, align 8
  store ptr %79, ptr %9, align 8
  %80 = load ptr, ptr %3, align 8
  %81 = load ptr, ptr %9, align 8
  %82 = getelementptr inbounds nuw %struct.JoinExpr, ptr %81, i32 0, i32 3
  %83 = load ptr, ptr %82, align 8
  call void @add_base_rels_to_query(ptr noundef %80, ptr noundef %83)
  %84 = load ptr, ptr %3, align 8
  %85 = load ptr, ptr %9, align 8
  %86 = getelementptr inbounds nuw %struct.JoinExpr, ptr %85, i32 0, i32 4
  %87 = load ptr, ptr %86, align 8
  call void @add_base_rels_to_query(ptr noundef %84, ptr noundef %87)
  call void @llvm.lifetime.end.p0(i64 8, ptr %9) #6
  br label %101

88:                                               ; preds = %73
  br label %89

89:                                               ; preds = %88
  br i1 true, label %90, label %92

90:                                               ; preds = %89
  %91 = call zeroext i1 @errstart_cold(i32 noundef 21, ptr noundef null) #7
  br i1 %91, label %94, label %99

92:                                               ; preds = %89
  %93 = call zeroext i1 @errstart(i32 noundef 21, ptr noundef null)
  br i1 %93, label %94, label %99

94:                                               ; preds = %92, %90
  %95 = load ptr, ptr %4, align 8
  %96 = getelementptr inbounds nuw %struct.Node, ptr %95, i32 0, i32 0
  %97 = load i32, ptr %96, align 4
  %98 = call i32 (ptr, ...) @errmsg_internal(ptr noundef @.str, i32 noundef %97)
  call void @errfinish(ptr noundef @.str.1, i32 noundef 185, ptr noundef @__func__.add_base_rels_to_query)
  br label %99

99:                                               ; preds = %94, %92, %90
  unreachable

100:                                              ; No predecessors!
  br label %101

101:                                              ; preds = %100, %78
  br label %102

102:                                              ; preds = %101, %72
  br label %103

103:                                              ; preds = %12, %102, %18
  ret void
}