; Function Attrs: nounwind uwtable
define dso_local void @add_base_rels_to_query(ptr noundef %0, ptr noundef readonly captures(address_is_null) %1) local_unnamed_addr #0 {
  %3 = icmp eq ptr %1, null
  br i1 %3, label %.thread, label %.lr.ph

.lr.ph:                                           ; preds = %2, %tailrecurse
  %.tr2631 = phi ptr [ %25, %tailrecurse ], [ %1, %2 ]
  %4 = load i32, ptr %.tr2631, align 4
  switch i32 %4, label %27 [
    i32 63, label %5
    i32 65, label %9
    i32 64, label %tailrecurse
  ]

5:                                                ; preds = %.lr.ph
  %6 = getelementptr inbounds nuw i8, ptr %.tr2631, i64 4
  %7 = load i32, ptr %6, align 4
  %8 = tail call ptr @build_simple_rel(ptr noundef %0, i32 noundef %7, ptr noundef null) #7
  br label %.thread

9:                                                ; preds = %.lr.ph
  %10 = getelementptr inbounds nuw i8, ptr %.tr2631, i64 8
  %11 = load ptr, ptr %10, align 8
  %12 = getelementptr inbounds nuw i8, ptr %11, i64 4
  %.not = icmp eq ptr %11, null
  br i1 %.not, label %.thread, label %.lr.ph33

.lr.ph33:                                         ; preds = %9
  %13 = getelementptr inbounds nuw i8, ptr %11, i64 16
  %14 = load i32, ptr %12, align 4
  %15 = icmp sgt i32 %14, 0
  br i1 %15, label %.lr.ph36, label %.thread

.lr.ph36:                                         ; preds = %.lr.ph33, %.lr.ph36
  %indvars.iv = phi i64 [ %indvars.iv.next, %.lr.ph36 ], [ 0, %.lr.ph33 ]
  %16 = load ptr, ptr %13, align 8
  %17 = getelementptr inbounds nuw %union.ListCell, ptr %16, i64 %indvars.iv
  %18 = load ptr, ptr %17, align 8
  tail call void @add_base_rels_to_query(ptr noundef %0, ptr noundef %18)
  %indvars.iv.next = add nuw nsw i64 %indvars.iv, 1
  %19 = load i32, ptr %12, align 4
  %20 = sext i32 %19 to i64
  %21 = icmp slt i64 %indvars.iv.next, %20
  br i1 %21, label %.lr.ph36, label %.thread

tailrecurse:                                      ; preds = %.lr.ph
  %22 = getelementptr inbounds nuw i8, ptr %.tr2631, i64 16
  %23 = load ptr, ptr %22, align 8
  tail call void @add_base_rels_to_query(ptr noundef %0, ptr noundef %23)
  %24 = getelementptr inbounds nuw i8, ptr %.tr2631, i64 24
  %25 = load ptr, ptr %24, align 8
  %26 = icmp eq ptr %25, null
  br i1 %26, label %.thread, label %.lr.ph

27:                                               ; preds = %.lr.ph
  %28 = tail call zeroext i1 @errstart_cold(i32 noundef 21, ptr noundef null) #8
  tail call void @llvm.assume(i1 %28)
  %29 = load i32, ptr %.tr2631, align 4
  %30 = tail call i32 (ptr, ...) @errmsg_internal(ptr noundef nonnull @.str, i32 noundef %29) #7
  tail call void @errfinish(ptr noundef nonnull @.str.1, i32 noundef 185, ptr noundef nonnull @__func__.add_base_rels_to_query) #7
  unreachable

.thread:                                          ; preds = %tailrecurse, %.lr.ph36, %2, %9, %.lr.ph33, %5
  ret void
}